; Function Attrs: nounwind uwtable
define hidden noundef signext i8 @nfaExecLbrTruf_queueCompressState(ptr noundef %0, ptr noundef readonly captures(none) %1, i64 noundef %2) local_unnamed_addr #0 {
  %4 = getelementptr inbounds nuw i8, ptr %0, i64 64
  %5 = getelementptr inbounds nuw i8, ptr %1, i64 16
  %6 = load ptr, ptr %5, align 8
  %7 = getelementptr inbounds nuw i8, ptr %1, i64 32
  %8 = load i64, ptr %7, align 8
  %9 = add i64 %8, %2
  %10 = getelementptr inbounds nuw i8, ptr %1, i64 24
  %11 = load ptr, ptr %10, align 8
  %12 = load i32, ptr %4, align 4
  %13 = zext i32 %12 to i64
  %14 = getelementptr inbounds nuw i8, ptr %4, i64 %13
  %15 = getelementptr inbounds nuw i8, ptr %6, i64 8
  tail call void @repeatPack(ptr noundef %11, ptr noundef nonnull %14, ptr noundef nonnull %15, i64 noundef %9) #8
  ret i8 0
}